Certificate:
    Data:
        Version: 3 (0x2)
        Serial Number:
            30:6e:3a:f7:ca:bd:cd:a6:97:e4:9c:0f:47:ab:96:a1:e3:01:58:06
        Signature Algorithm: sha256WithRSAEncryption
        Issuer: CN = root.yourdomain.com
        Validity
            Not Before: Jun 19 18:51:35 2022 GMT
            Not After : Jun 16 18:51:35 2032 GMT
        Subject: CN = root.yourdomain.com
        Subject Public Key Info:
            Public Key Algorithm: rsaEncryption
                Public-Key: (2048 bit)
                Modulus:
                    00:d0:dc:87:80:f7:41:82:f6:f0:46:9e:2a:2a:f7:
                    65:db:2c:92:69:0e:a8:99:bd:84:0a:84:7b:79:8d:
                    ab:bf:00:78:e7:c1:f9:d1:dc:30:91:cd:96:73:9d:
                    46:a0:c0:2c:ac:4d:7c:0d:57:a0:d9:e3:04:ee:ba:
                    ef:b2:57:54:07:d8:0e:6a:bb:12:a7:ef:c4:2d:d9:
                    1e:e5:01:0a:b8:d2:33:4b:da:51:28:ba:f3:c0:2c:
                    4e:02:03:e5:5d:47:3d:da:5d:6a:70:ad:70:13:11:
                    fd:dc:d1:dc:ac:f0:a6:a1:96:34:af:e5:21:de:f3:
                    2f:65:ce:f0:d0:8d:82:ea:d8:3e:79:4b:af:63:d1:
                    6c:ac:80:86:1a:b4:1c:92:61:f8:f1:73:31:05:d5:
                    cf:61:0c:93:b5:1c:bb:96:45:63:97:d8:92:54:6c:
                    25:be:17:05:dc:16:b6:09:81:06:6c:be:e7:7d:6f:
                    ca:a5:58:1f:40:86:8e:5d:28:61:44:98:ab:62:f0:
                    09:b0:aa:e4:c7:31:a2:b8:93:3f:89:9a:a4:78:32:
                    23:c3:94:14:c2:ed:53:24:fd:a8:46:3e:93:8e:98:
                    3e:e9:21:0d:d4:e4:7f:07:32:e6:9c:8d:4a:a0:46:
                    0b:f4:39:47:f8:5d:f8:89:5b:e0:a5:c5:cc:53:5e:
                    6b:81
                Exponent: 65537 (0x10001)
        X509v3 extensions:
            X509v3 Subject Key Identifier: 
                98:C5:57:BE:47:DA:A4:7A:B8:8E:8B:E8:53:DB:66:18:D5:3E:3B:8E
            X509v3 Authority Key Identifier: 
                98:C5:57:BE:47:DA:A4:7A:B8:8E:8B:E8:53:DB:66:18:D5:3E:3B:8E
            X509v3 Basic Constraints: critical
                CA:TRUE
    Signature Algorithm: sha256WithRSAEncryption
    Signature Value:
        57:f5:48:94:15:27:14:3e:4c:52:a2:70:84:4c:6b:94:82:63:
        07:b6:b2:2d:18:ec:b8:f9:f0:eb:64:eb:e9:36:73:a6:b6:71:
        de:0b:3f:8d:2e:34:d2:13:c4:27:90:f1:39:ba:f5:88:ce:d1:
        98:72:25:e4:7f:f2:ec:e9:96:e9:a0:6c:b4:f1:df:2c:87:0b:
        3e:e9:8f:3f:8f:92:72:6f:3c:a9:2a:e6:2e:dd:37:b1:7e:77:
        75:fc:05:f1:f4:e8:f3:61:6f:9f:06:6f:e9:d2:2a:da:04:68:
        ea:9e:7d:df:7a:c5:bc:1d:a0:64:64:87:d9:fb:2c:96:20:52:
        68:47:60:c3:c9:fe:a8:06:99:1e:a8:b6:69:61:24:c7:a3:90:
        a9:f8:a1:7f:7e:84:aa:8c:71:65:36:33:53:9c:cb:ac:33:80:
        46:82:eb:a7:9c:c8:d1:b4:4f:81:33:a1:43:9c:dc:1d:86:a6:
        33:87:2b:cf:e7:e4:95:53:1a:f5:bb:39:67:65:29:f6:b5:ce:
        8e:0e:fb:34:25:9e:83:d8:9e:c2:9c:18:a3:aa:37:e5:04:e6:
        f4:8a:b4:86:54:f2:ea:92:9f:06:5c:53:81:0b:90:76:47:83:
        4b:d7:19:e8:78:84:60:83:7a:0a:c2:44:5c:09:66:55:72:87:
        8b:ef:2e:26
-----BEGIN CERTIFICATE-----
MIIDHTCCAgWgAwIBAgIUMG4698q9zaaX5JwPR6uWoeMBWAYwDQYJKoZIhvcNAQEL
BQAwHjEcMBoGA1UEAwwTcm9vdC55b3VyZG9tYWluLmNvbTAeFw0yMjA2MTkxODUx
MzVaFw0zMjA2MTYxODUxMzVaMB4xHDAaBgNVBAMME3Jvb3QueW91cmRvbWFpbi5j
b20wggEiMA0GCSqGSIb3DQEBAQUAA4IBDwAwggEKAoIBAQDQ3IeA90GC9vBGnioq
92XbLJJpDqiZvYQKhHt5jau/AHjnwfnR3DCRzZZznUagwCysTXwNV6DZ4wTuuu+y
V1QH2A5quxKn78Qt2R7lAQq40jNL2lEouvPALE4CA+VdRz3aXWpwrXATEf3c0dys
8KahljSv5SHe8y9lzvDQjYLq2D55S69j0WysgIYatBySYfjxczEF1c9hDJO1HLuW
RWOX2JJUbCW+FwXcFrYJgQZsvud9b8qlWB9Aho5dKGFEmKti8AmwquTHMaK4kz+J
mqR4MiPDlBTC7VMk/ahGPpOOmD7pIQ3U5H8HMuacjUqgRgv0OUf4XfiJW+ClxcxT
XmuBAgMBAAGjUzBRMB0GA1UdDgQWBBSYxVe+R9qkeriOi+hT22YY1T47jjAfBgNV
HSMEGDAWgBSYxVe+R9qkeriOi+hT22YY1T47jjAPBgNVHRMBAf8EBTADAQH/MA0G
CSqGSIb3DQEBCwUAA4IBAQBX9UiUFScUPkxSonCETGuUgmMHtrItGOy4+fDrZOvp
NnOmtnHeCz+NLjTSE8QnkPE5uvWIztGYciXkf/Ls6ZbpoGy08d8shws+6Y8/j5Jy
bzypKuYu3Texfnd1/AXx9OjzYW+fBm/p0iraBGjqnn3fesW8HaBkZIfZ+yyWIFJo
R2DDyf6oBpkeqLZpYSTHo5Cp+KF/foSqjHFlNjNTnMusM4BGguunnMjRtE+BM6FD
nNwdhqYzhyvP5+SVUxr1uzlnZSn2tc6ODvs0JZ6D2J7CnBijqjflBOb0irSGVPLq
kp8GXFOBC5B2R4NL1xnoeIRgg3oKwkRcCWZVcoeL7y4m
-----END CERTIFICATE-----
