Certificate Request:
    Data:
        Version: 1 (0x0)
        Subject: CN = root.yourdomain.com
        Subject Public Key Info:
            Public Key Algorithm: rsaEncryption
                Public-Key: (2048 bit)
                Modulus:
                    00:d0:dc:87:80:f7:41:82:f6:f0:46:9e:2a:2a:f7:
                    65:db:2c:92:69:0e:a8:99:bd:84:0a:84:7b:79:8d:
                    ab:bf:00:78:e7:c1:f9:d1:dc:30:91:cd:96:73:9d:
                    46:a0:c0:2c:ac:4d:7c:0d:57:a0:d9:e3:04:ee:ba:
                    ef:b2:57:54:07:d8:0e:6a:bb:12:a7:ef:c4:2d:d9:
                    1e:e5:01:0a:b8:d2:33:4b:da:51:28:ba:f3:c0:2c:
                    4e:02:03:e5:5d:47:3d:da:5d:6a:70:ad:70:13:11:
                    fd:dc:d1:dc:ac:f0:a6:a1:96:34:af:e5:21:de:f3:
                    2f:65:ce:f0:d0:8d:82:ea:d8:3e:79:4b:af:63:d1:
                    6c:ac:80:86:1a:b4:1c:92:61:f8:f1:73:31:05:d5:
                    cf:61:0c:93:b5:1c:bb:96:45:63:97:d8:92:54:6c:
                    25:be:17:05:dc:16:b6:09:81:06:6c:be:e7:7d:6f:
                    ca:a5:58:1f:40:86:8e:5d:28:61:44:98:ab:62:f0:
                    09:b0:aa:e4:c7:31:a2:b8:93:3f:89:9a:a4:78:32:
                    23:c3:94:14:c2:ed:53:24:fd:a8:46:3e:93:8e:98:
                    3e:e9:21:0d:d4:e4:7f:07:32:e6:9c:8d:4a:a0:46:
                    0b:f4:39:47:f8:5d:f8:89:5b:e0:a5:c5:cc:53:5e:
                    6b:81
                Exponent: 65537 (0x10001)
        Attributes:
            (none)
            Requested Extensions:
    Signature Algorithm: sha256WithRSAEncryption
    Signature Value:
        96:e9:58:62:29:79:21:94:23:61:ea:cc:53:7e:85:ca:3d:8b:
        9e:93:34:38:37:7e:6f:14:bd:14:dd:d9:a6:c4:44:a3:c9:58:
        f8:1e:54:a4:33:49:98:f0:a1:ab:35:74:56:ea:7e:b3:49:2b:
        0d:95:25:18:a9:cc:12:be:45:04:9f:69:6b:31:a5:cf:24:39:
        70:b8:db:ba:27:50:f2:41:c8:0d:0e:00:26:f2:36:7f:4c:8b:
        3a:e0:95:cb:66:a5:5d:81:ba:c1:e7:e8:f4:88:3f:c0:57:23:
        57:0c:0b:be:b2:58:32:42:23:22:84:47:72:4d:58:9c:e5:c7:
        d8:c6:ef:2c:9c:29:5e:60:a2:5b:57:86:1f:e9:f5:f0:6c:3c:
        3f:05:1b:6d:07:ef:77:c4:23:c4:33:3f:67:b3:1d:78:f4:c6:
        90:9b:e5:04:9f:7b:5e:3f:41:e2:50:40:d4:49:a3:8b:48:26:
        ea:08:23:a8:be:d4:22:d9:3b:60:44:31:e7:e7:a9:fb:7b:90:
        cd:7c:01:65:6f:c4:85:13:70:ce:18:a5:d7:1b:4b:1e:e1:39:
        7b:bb:0b:8c:49:fe:41:fd:79:52:75:86:4a:df:eb:97:af:87:
        0d:6e:13:b9:99:99:fe:f5:f5:ea:a3:8e:54:5d:85:c7:90:86:
        17:81:6c:9b
-----BEGIN CERTIFICATE REQUEST-----
MIICYzCCAUsCAQAwHjEcMBoGA1UEAwwTcm9vdC55b3VyZG9tYWluLmNvbTCCASIw
DQYJKoZIhvcNAQEBBQADggEPADCCAQoCggEBANDch4D3QYL28EaeKir3ZdsskmkO
qJm9hAqEe3mNq78AeOfB+dHcMJHNlnOdRqDALKxNfA1XoNnjBO6677JXVAfYDmq7
EqfvxC3ZHuUBCrjSM0vaUSi688AsTgID5V1HPdpdanCtcBMR/dzR3KzwpqGWNK/l
Id7zL2XO8NCNgurYPnlLr2PRbKyAhhq0HJJh+PFzMQXVz2EMk7Ucu5ZFY5fYklRs
Jb4XBdwWtgmBBmy+531vyqVYH0CGjl0oYUSYq2LwCbCq5McxoriTP4mapHgyI8OU
FMLtUyT9qEY+k46YPukhDdTkfwcy5pyNSqBGC/Q5R/hd+Ilb4KXFzFNea4ECAwEA
AaAAMA0GCSqGSIb3DQEBCwUAA4IBAQCW6VhiKXkhlCNh6sxTfoXKPYuekzQ4N35v
FL0U3dmmxESjyVj4HlSkM0mY8KGrNXRW6n6zSSsNlSUYqcwSvkUEn2lrMaXPJDlw
uNu6J1DyQcgNDgAm8jZ/TIs64JXLZqVdgbrB5+j0iD/AVyNXDAu+slgyQiMihEdy
TVic5cfYxu8snCleYKJbV4Yf6fXwbDw/BRttB+93xCPEMz9nsx149MaQm+UEn3te
P0HiUEDUSaOLSCbqCCOovtQi2TtgRDHn56n7e5DNfAFlb8SFE3DOGKXXG0se4Tl7
uwuMSf5B/XlSdYZK3+uXr4cNbhO5mZn+9fXqo45UXYXHkIYXgWyb
-----END CERTIFICATE REQUEST-----
