Certificate Request:
    Data:
        Version: 1 (0x0)
        Subject: CN = dbhost.yourdomain.com
        Subject Public Key Info:
            Public Key Algorithm: rsaEncryption
                Public-Key: (2048 bit)
                Modulus:
                    00:c6:b6:05:a2:9f:fd:3e:89:0e:6c:ed:40:ad:67:
                    1e:f5:56:98:da:07:b7:38:c6:81:3b:b5:fa:1a:f8:
                    83:2a:f4:ee:b9:10:7d:96:b6:68:76:d2:11:40:5c:
                    84:41:53:da:65:91:d3:db:61:bd:db:62:46:ef:32:
                    ea:71:43:bc:c8:48:6b:7b:e2:4b:c2:87:96:d6:ce:
                    9d:a6:e9:56:cc:0b:89:6e:5b:38:19:e0:db:49:2e:
                    88:be:cf:44:4c:09:11:bf:09:e7:77:30:78:77:bc:
                    08:b5:56:5d:18:9f:b7:5e:c5:f1:e3:4b:63:de:c7:
                    a7:8c:69:f1:61:c2:a4:90:d9:d2:55:73:64:48:04:
                    a5:51:14:12:e6:2b:b8:98:f4:6b:a5:99:25:7f:08:
                    8b:9f:d0:f2:7f:96:42:b5:c5:8e:e1:37:7f:34:2c:
                    49:1c:f2:dd:93:f6:67:be:41:bc:d7:30:d5:0b:ee:
                    d8:8d:47:d3:5c:a2:1d:ba:77:19:b0:3e:f3:a1:e9:
                    b5:15:4d:db:f4:d9:3b:6b:15:d2:5d:07:95:d0:8c:
                    af:83:c0:ac:81:13:9e:4d:9b:a1:e9:8b:e1:77:97:
                    7d:81:e1:42:69:0e:a7:d5:07:f0:0d:cc:2d:f5:0f:
                    ec:85:f9:bd:d9:15:91:6d:85:a7:09:b2:31:dc:b5:
                    21:41
                Exponent: 65537 (0x10001)
        Attributes:
            (none)
            Requested Extensions:
    Signature Algorithm: sha256WithRSAEncryption
    Signature Value:
        42:95:78:a1:61:7a:3f:97:60:1a:2b:b9:e1:c5:a7:85:76:5d:
        8f:0e:20:94:36:c7:07:99:2d:6f:60:e6:64:b2:d8:98:71:36:
        22:53:61:b6:19:ad:3e:c9:71:8e:79:77:5a:0a:99:ee:ba:a3:
        e0:f0:2c:db:b8:71:36:e6:2f:34:83:31:e1:67:5b:9b:34:1d:
        b9:b0:f6:41:2a:bc:df:68:49:c7:63:a1:dd:4d:09:1b:bc:a2:
        a5:5a:dc:45:99:39:52:06:48:08:ce:b6:b3:f7:e4:89:32:d6:
        61:94:2d:fb:57:96:76:f3:58:24:58:84:1f:f6:53:e7:56:fe:
        a0:ce:8c:c1:7e:20:85:81:c4:aa:6c:32:ba:31:e1:d7:11:d0:
        62:59:4f:f3:a3:f9:42:91:c1:69:18:3c:a1:17:02:56:76:37:
        a6:df:41:8b:84:84:80:39:f9:fe:17:6b:87:87:f5:7c:8f:aa:
        7f:c6:f0:76:3e:fa:3c:d4:3d:c5:2e:07:cf:a0:7b:26:c3:6a:
        8f:eb:26:9a:3e:09:2d:c6:ce:ad:a3:3c:2e:18:c4:82:82:94:
        44:a3:e4:bc:64:52:7e:c9:87:6d:29:a7:0b:66:b6:1c:7f:9d:
        b3:41:25:30:90:3c:50:1b:7a:88:9d:93:74:1c:33:05:8d:25:
        f9:06:ee:2d
-----BEGIN CERTIFICATE REQUEST-----
MIICZTCCAU0CAQAwIDEeMBwGA1UEAwwVZGJob3N0LnlvdXJkb21haW4uY29tMIIB
IjANBgkqhkiG9w0BAQEFAAOCAQ8AMIIBCgKCAQEAxrYFop/9PokObO1ArWce9VaY
2ge3OMaBO7X6GviDKvTuuRB9lrZodtIRQFyEQVPaZZHT22G922JG7zLqcUO8yEhr
e+JLwoeW1s6dpulWzAuJbls4GeDbSS6Ivs9ETAkRvwnndzB4d7wItVZdGJ+3XsXx
40tj3senjGnxYcKkkNnSVXNkSASlURQS5iu4mPRrpZklfwiLn9Dyf5ZCtcWO4Td/
NCxJHPLdk/ZnvkG81zDVC+7YjUfTXKIduncZsD7zoem1FU3b9Nk7axXSXQeV0Iyv
g8CsgROeTZuh6Yvhd5d9geFCaQ6n1QfwDcwt9Q/shfm92RWRbYWnCbIx3LUhQQID
AQABoAAwDQYJKoZIhvcNAQELBQADggEBAEKVeKFhej+XYBorueHFp4V2XY8OIJQ2
xweZLW9g5mSy2JhxNiJTYbYZrT7JcY55d1oKme66o+DwLNu4cTbmLzSDMeFnW5s0
Hbmw9kEqvN9oScdjod1NCRu8oqVa3EWZOVIGSAjOtrP35Iky1mGULftXlnbzWCRY
hB/2U+dW/qDOjMF+IIWBxKpsMrox4dcR0GJZT/Oj+UKRwWkYPKEXAlZ2N6bfQYuE
hIA5+f4Xa4eH9XyPqn/G8HY++jzUPcUuB8+geybDao/rJpo+CS3Gzq2jPC4YxIKC
lESj5LxkUn7Jh20ppwtmthx/nbNBJTCQPFAbeoidk3QcMwWNJfkG7i0=
-----END CERTIFICATE REQUEST-----
