Certificate:
    Data:
        Version: 1 (0x0)
        Serial Number:
            11:10:c5:e1:ab:64:30:73:09:ac:50:d4:4a:09:5a:2c:9a:d0:14:0c
        Signature Algorithm: sha256WithRSAEncryption
        Issuer: CN = root.yourdomain.com
        Validity
            Not Before: Jun 19 18:51:35 2022 GMT
            Not After : Jun 19 18:51:35 2023 GMT
        Subject: CN = dbhost.yourdomain.com
        Subject Public Key Info:
            Public Key Algorithm: rsaEncryption
                Public-Key: (2048 bit)
                Modulus:
                    00:c6:b6:05:a2:9f:fd:3e:89:0e:6c:ed:40:ad:67:
                    1e:f5:56:98:da:07:b7:38:c6:81:3b:b5:fa:1a:f8:
                    83:2a:f4:ee:b9:10:7d:96:b6:68:76:d2:11:40:5c:
                    84:41:53:da:65:91:d3:db:61:bd:db:62:46:ef:32:
                    ea:71:43:bc:c8:48:6b:7b:e2:4b:c2:87:96:d6:ce:
                    9d:a6:e9:56:cc:0b:89:6e:5b:38:19:e0:db:49:2e:
                    88:be:cf:44:4c:09:11:bf:09:e7:77:30:78:77:bc:
                    08:b5:56:5d:18:9f:b7:5e:c5:f1:e3:4b:63:de:c7:
                    a7:8c:69:f1:61:c2:a4:90:d9:d2:55:73:64:48:04:
                    a5:51:14:12:e6:2b:b8:98:f4:6b:a5:99:25:7f:08:
                    8b:9f:d0:f2:7f:96:42:b5:c5:8e:e1:37:7f:34:2c:
                    49:1c:f2:dd:93:f6:67:be:41:bc:d7:30:d5:0b:ee:
                    d8:8d:47:d3:5c:a2:1d:ba:77:19:b0:3e:f3:a1:e9:
                    b5:15:4d:db:f4:d9:3b:6b:15:d2:5d:07:95:d0:8c:
                    af:83:c0:ac:81:13:9e:4d:9b:a1:e9:8b:e1:77:97:
                    7d:81:e1:42:69:0e:a7:d5:07:f0:0d:cc:2d:f5:0f:
                    ec:85:f9:bd:d9:15:91:6d:85:a7:09:b2:31:dc:b5:
                    21:41
                Exponent: 65537 (0x10001)
    Signature Algorithm: sha256WithRSAEncryption
    Signature Value:
        21:03:f5:89:ff:41:90:4b:08:68:a8:08:bd:ff:86:ac:e0:65:
        9a:32:e7:11:03:6f:54:02:8a:72:b0:6c:37:3e:a8:83:f7:68:
        c1:bb:77:b0:80:aa:29:21:95:ad:14:a3:86:4d:41:6e:fe:11:
        e1:0f:4d:e7:64:87:8d:d6:d8:39:f5:a9:d9:2f:94:fa:9a:0b:
        92:2d:bf:55:e5:de:7f:f0:5c:5d:ee:8b:9d:fc:53:90:35:4a:
        92:fe:26:88:85:31:9d:bf:a3:41:b9:84:19:86:7b:bf:07:51:
        06:af:23:14:de:23:f1:5a:b2:7c:2a:42:35:da:45:3d:f5:17:
        b9:2d:22:60:25:32:2f:28:94:63:da:f8:aa:12:b2:58:a0:26:
        d0:e7:bd:59:80:88:e2:ca:ab:30:7c:f8:fe:08:76:b5:75:09:
        a0:f3:6f:bc:93:10:ce:55:04:46:b0:b3:84:a0:39:e6:8c:7a:
        31:b2:7d:cd:a7:0e:8d:d8:fe:50:c3:c9:14:76:52:97:41:1f:
        92:25:65:87:4e:0a:98:77:1e:03:18:01:47:37:b0:3a:0d:2f:
        81:bc:00:de:b5:68:61:16:3a:ce:31:70:0b:32:3a:39:ee:9f:
        59:07:40:38:05:7e:74:42:4f:db:ab:dd:d8:f3:1b:23:f5:c5:
        01:23:35:68
-----BEGIN CERTIFICATE-----
MIICxTCCAa0CFBEQxeGrZDBzCaxQ1EoJWiya0BQMMA0GCSqGSIb3DQEBCwUAMB4x
HDAaBgNVBAMME3Jvb3QueW91cmRvbWFpbi5jb20wHhcNMjIwNjE5MTg1MTM1WhcN
MjMwNjE5MTg1MTM1WjAgMR4wHAYDVQQDDBVkYmhvc3QueW91cmRvbWFpbi5jb20w
ggEiMA0GCSqGSIb3DQEBAQUAA4IBDwAwggEKAoIBAQDGtgWin/0+iQ5s7UCtZx71
VpjaB7c4xoE7tfoa+IMq9O65EH2Wtmh20hFAXIRBU9plkdPbYb3bYkbvMupxQ7zI
SGt74kvCh5bWzp2m6VbMC4luWzgZ4NtJLoi+z0RMCRG/Ced3MHh3vAi1Vl0Yn7de
xfHjS2Pex6eMafFhwqSQ2dJVc2RIBKVRFBLmK7iY9GulmSV/CIuf0PJ/lkK1xY7h
N380LEkc8t2T9me+QbzXMNUL7tiNR9Ncoh26dxmwPvOh6bUVTdv02TtrFdJdB5XQ
jK+DwKyBE55Nm6Hpi+F3l32B4UJpDqfVB/ANzC31D+yF+b3ZFZFthacJsjHctSFB
AgMBAAEwDQYJKoZIhvcNAQELBQADggEBACED9Yn/QZBLCGioCL3/hqzgZZoy5xED
b1QCinKwbDc+qIP3aMG7d7CAqikhla0Uo4ZNQW7+EeEPTedkh43W2Dn1qdkvlPqa
C5Itv1Xl3n/wXF3ui538U5A1SpL+JoiFMZ2/o0G5hBmGe78HUQavIxTeI/Fasnwq
QjXaRT31F7ktImAlMi8olGPa+KoSsligJtDnvVmAiOLKqzB8+P4IdrV1CaDzb7yT
EM5VBEaws4SgOeaMejGyfc2nDo3Y/lDDyRR2UpdBH5IlZYdOCph3HgMYAUc3sDoN
L4G8AN61aGEWOs4xcAsyOjnun1kHQDgFfnRCT9ur3djzGyP1xQEjNWg=
-----END CERTIFICATE-----
